target datalayout = "e-m:e-p270:32:32-p271:32:32-p272:64:64-i64:64-i128:128-f80:128-n8:16:32:64-S128"
target triple = "x86_64-pc-linux-gnu"

%struct.H5UC_t = type { ptr, i64, ptr }
%struct.H5B_shared_t = type { ptr, i32, i64, i64, i64, i64, i64, ptr, ptr, ptr }
%struct.H5B_t = type { %struct.H5C_cache_entry_t, ptr, i32, i32, i64, i64, ptr, ptr }
%struct.H5C_cache_entry_t = type { ptr, i64, i64, ptr, i8, ptr, i8, i8, i8, i8, i32, i8, i8, i8, i8, i8, i32, ptr, i32, i32, i32, i32, i32, i8, i8, ptr, ptr, ptr, ptr, ptr, ptr, i8, i32, i8, i64, ptr, i64, i64, i32, i8, i32, i32, i8, ptr, ptr, ptr }
%struct.H5B_class_t = type { i32, i64, ptr, ptr, ptr, ptr, ptr, ptr, i8, i8, i32, ptr, ptr, ptr, ptr }

@.str.1 = private unnamed_addr constant [102 x i8] c"generated/home/dtcxzyw/WorkSpace/Projects/compilers/llvm-opt-benchmark/bench/hdf5/hdf5/src/H5Bcache.c\00", align 1
@H5E_BTREE_g = external global i64, align 8
@.str.7 = private unnamed_addr constant [5 x i8] c"TREE\00", align 1
@__func__.H5B__cache_serialize = private unnamed_addr constant [21 x i8] c"H5B__cache_serialize\00", align 1
@H5E_CANTENCODE_g = external global i64, align 8
@.str.13 = private unnamed_addr constant [28 x i8] c"unable to encode node level\00", align 1
@.str.14 = private unnamed_addr constant [28 x i8] c"unable to encode B-tree key\00", align 1

; Function Attrs: nounwind uwtable
define internal i32 @H5B__cache_serialize(ptr noundef %0, ptr noundef %1, i64 noundef %2, ptr noundef %3) #0 {
  %5 = alloca ptr, align 8
  %6 = alloca ptr, align 8
  %7 = alloca i64, align 8
  %8 = alloca ptr, align 8
  %9 = alloca ptr, align 8
  %10 = alloca ptr, align 8
  %11 = alloca ptr, align 8
  %12 = alloca ptr, align 8
  %13 = alloca i32, align 4
  %14 = alloca i32, align 4
  %15 = alloca i8, align 1
  store ptr %0, ptr %5, align 8
  store ptr %1, ptr %6, align 8
  store i64 %2, ptr %7, align 8
  store ptr %3, ptr %8, align 8
  %16 = load ptr, ptr %8, align 8
  store ptr %16, ptr %9, align 8
  %17 = load ptr, ptr %6, align 8
  store ptr %17, ptr %11, align 8
  store i32 0, ptr %14, align 4
  store i8 0, ptr %15, align 1
  %18 = load ptr, ptr %9, align 8
  %19 = getelementptr inbounds %struct.H5B_t, ptr %18, i32 0, i32 1
  %20 = load ptr, ptr %19, align 8
  %21 = getelementptr inbounds %struct.H5UC_t, ptr %20, i32 0, i32 0
  %22 = load ptr, ptr %21, align 8
  store ptr %22, ptr %10, align 8
  %23 = load ptr, ptr %11, align 8
  call void @llvm.memcpy.p0.p0.i64(ptr align 1 %23, ptr align 1 @.str.7, i64 4, i1 false)
  %24 = load ptr, ptr %11, align 8
  %25 = getelementptr inbounds i8, ptr %24, i64 4
  store ptr %25, ptr %11, align 8
  %26 = load ptr, ptr %10, align 8
  %27 = getelementptr inbounds %struct.H5B_shared_t, ptr %26, i32 0, i32 0
  %28 = load ptr, ptr %27, align 8
  %29 = getelementptr inbounds %struct.H5B_class_t, ptr %28, i32 0, i32 0
  %30 = load i32, ptr %29, align 8
  %31 = trunc i32 %30 to i8
  %32 = load ptr, ptr %11, align 8
  %33 = getelementptr inbounds i8, ptr %32, i32 1
  store ptr %33, ptr %11, align 8
  store i8 %31, ptr %32, align 1
  %34 = load ptr, ptr %9, align 8
  %35 = getelementptr inbounds %struct.H5B_t, ptr %34, i32 0, i32 2
  %36 = load i32, ptr %35, align 8
  %37 = uitofp i32 %36 to double
  %38 = call double @pow(double noundef 2.000000e+00, double noundef 8.000000e+00) #7
  %39 = fcmp oge double %37, %38
  br i1 %39, label %40, label %55

40:                                               ; preds = %4
  br label %41

41:                                               ; preds = %40
  br label %42

42:                                               ; preds = %41
  br label %43

43:                                               ; preds = %42
  %44 = load i64, ptr @H5E_BTREE_g, align 8
  %45 = load i64, ptr @H5E_CANTENCODE_g, align 8
  %46 = call i32 (ptr, ptr, i32, i64, i64, ptr, ...) @H5E_printf_stack(ptr noundef @.str.1, ptr noundef @__func__.H5B__cache_serialize, i32 noundef 294, i64 noundef %44, i64 noundef %45, ptr noundef @.str.13)
  br label %47

47:                                               ; preds = %43
  store i8 1, ptr %15, align 1
  %48 = load i8, ptr %15, align 1
  %49 = trunc i8 %48 to i1
  %50 = zext i1 %49 to i8
  store i8 %50, ptr %15, align 1
  br label %51

51:                                               ; preds = %47
  br label %52

52:                                               ; preds = %51
  store i32 -1, ptr %14, align 4
  br label %194

53:                                               ; No predecessors!
  br label %54

54:                                               ; preds = %53
  br label %55

55:                                               ; preds = %54, %4
  %56 = load ptr, ptr %9, align 8
  %57 = getelementptr inbounds %struct.H5B_t, ptr %56, i32 0, i32 2
  %58 = load i32, ptr %57, align 8
  %59 = trunc i32 %58 to i8
  %60 = load ptr, ptr %11, align 8
  %61 = getelementptr inbounds i8, ptr %60, i32 1
  store ptr %61, ptr %11, align 8
  store i8 %59, ptr %60, align 1
  br label %62

62:                                               ; preds = %55
  %63 = load ptr, ptr %9, align 8
  %64 = getelementptr inbounds %struct.H5B_t, ptr %63, i32 0, i32 3
  %65 = load i32, ptr %64, align 4
  %66 = and i32 %65, 255
  %67 = trunc i32 %66 to i8
  %68 = load ptr, ptr %11, align 8
  store i8 %67, ptr %68, align 1
  %69 = load ptr, ptr %11, align 8
  %70 = getelementptr inbounds i8, ptr %69, i32 1
  store ptr %70, ptr %11, align 8
  %71 = load ptr, ptr %9, align 8
  %72 = getelementptr inbounds %struct.H5B_t, ptr %71, i32 0, i32 3
  %73 = load i32, ptr %72, align 4
  %74 = lshr i32 %73, 8
  %75 = and i32 %74, 255
  %76 = trunc i32 %75 to i8
  %77 = load ptr, ptr %11, align 8
  store i8 %76, ptr %77, align 1
  %78 = load ptr, ptr %11, align 8
  %79 = getelementptr inbounds i8, ptr %78, i32 1
  store ptr %79, ptr %11, align 8
  br label %80

80:                                               ; preds = %62
  %81 = load ptr, ptr %5, align 8
  %82 = load ptr, ptr %9, align 8
  %83 = getelementptr inbounds %struct.H5B_t, ptr %82, i32 0, i32 4
  %84 = load i64, ptr %83, align 8
  call void @H5F_addr_encode(ptr noundef %81, ptr noundef %11, i64 noundef %84)
  %85 = load ptr, ptr %5, align 8
  %86 = load ptr, ptr %9, align 8
  %87 = getelementptr inbounds %struct.H5B_t, ptr %86, i32 0, i32 5
  %88 = load i64, ptr %87, align 8
  call void @H5F_addr_encode(ptr noundef %85, ptr noundef %11, i64 noundef %88)
  %89 = load ptr, ptr %9, align 8
  %90 = getelementptr inbounds %struct.H5B_t, ptr %89, i32 0, i32 6
  %91 = load ptr, ptr %90, align 8
  store ptr %91, ptr %12, align 8
  store i32 0, ptr %13, align 4
  br label %92

92:                                               ; preds = %145, %80
  %93 = load i32, ptr %13, align 4
  %94 = load ptr, ptr %9, align 8
  %95 = getelementptr inbounds %struct.H5B_t, ptr %94, i32 0, i32 3
  %96 = load i32, ptr %95, align 4
  %97 = icmp ult i32 %93, %96
  br i1 %97, label %98, label %148

98:                                               ; preds = %92
  %99 = load ptr, ptr %10, align 8
  %100 = getelementptr inbounds %struct.H5B_shared_t, ptr %99, i32 0, i32 0
  %101 = load ptr, ptr %100, align 8
  %102 = getelementptr inbounds %struct.H5B_class_t, ptr %101, i32 0, i32 13
  %103 = load ptr, ptr %102, align 8
  %104 = load ptr, ptr %10, align 8
  %105 = load ptr, ptr %11, align 8
  %106 = load ptr, ptr %12, align 8
  %107 = call i32 %103(ptr noundef %104, ptr noundef %105, ptr noundef %106)
  %108 = icmp slt i32 %107, 0
  br i1 %108, label %109, label %124

109:                                              ; preds = %98
  br label %110

110:                                              ; preds = %109
  br label %111

111:                                              ; preds = %110
  br label %112

112:                                              ; preds = %111
  %113 = load i64, ptr @H5E_BTREE_g, align 8
  %114 = load i64, ptr @H5E_CANTENCODE_g, align 8
  %115 = call i32 (ptr, ptr, i32, i64, i64, ptr, ...) @H5E_printf_stack(ptr noundef @.str.1, ptr noundef @__func__.H5B__cache_serialize, i32 noundef 311, i64 noundef %113, i64 noundef %114, ptr noundef @.str.14)
  br label %116

116:                                              ; preds = %112
  store i8 1, ptr %15, align 1
  %117 = load i8, ptr %15, align 1
  %118 = trunc i8 %117 to i1
  %119 = zext i1 %118 to i8
  store i8 %119, ptr %15, align 1
  br label %120

120:                                              ; preds = %116
  br label %121

121:                                              ; preds = %120
  store i32 -1, ptr %14, align 4
  br label %194

122:                                              ; No predecessors!
  br label %123

123:                                              ; preds = %122
  br label %124

124:                                              ; preds = %123, %98
  %125 = load ptr, ptr %10, align 8
  %126 = getelementptr inbounds %struct.H5B_shared_t, ptr %125, i32 0, i32 2
  %127 = load i64, ptr %126, align 8
  %128 = load ptr, ptr %11, align 8
  %129 = getelementptr inbounds i8, ptr %128, i64 %127
  store ptr %129, ptr %11, align 8
  %130 = load ptr, ptr %10, align 8
  %131 = getelementptr inbounds %struct.H5B_shared_t, ptr %130, i32 0, i32 0
  %132 = load ptr, ptr %131, align 8
  %133 = getelementptr inbounds %struct.H5B_class_t, ptr %132, i32 0, i32 1
  %134 = load i64, ptr %133, align 8
  %135 = load ptr, ptr %12, align 8
  %136 = getelementptr inbounds i8, ptr %135, i64 %134
  store ptr %136, ptr %12, align 8
  %137 = load ptr, ptr %5, align 8
  %138 = load ptr, ptr %9, align 8
  %139 = getelementptr inbounds %struct.H5B_t, ptr %138, i32 0, i32 7
  %140 = load ptr, ptr %139, align 8
  %141 = load i32, ptr %13, align 4
  %142 = zext i32 %141 to i64
  %143 = getelementptr inbounds i64, ptr %140, i64 %142
  %144 = load i64, ptr %143, align 8
  call void @H5F_addr_encode(ptr noundef %137, ptr noundef %11, i64 noundef %144)
  br label %145

145:                                              ; preds = %124
  %146 = load i32, ptr %13, align 4
  %147 = add i32 %146, 1
  store i32 %147, ptr %13, align 4
  br label %92

148:                                              ; preds = %92
  %149 = load ptr, ptr %9, align 8
  %150 = getelementptr inbounds %struct.H5B_t, ptr %149, i32 0, i32 3
  %151 = load i32, ptr %150, align 4
  %152 = icmp ugt i32 %151, 0
  br i1 %152, label %153, label %185

153:                                              ; preds = %148
  %154 = load ptr, ptr %10, align 8
  %155 = getelementptr inbounds %struct.H5B_shared_t, ptr %154, i32 0, i32 0
  %156 = load ptr, ptr %155, align 8
  %157 = getelementptr inbounds %struct.H5B_class_t, ptr %156, i32 0, i32 13
  %158 = load ptr, ptr %157, align 8
  %159 = load ptr, ptr %10, align 8
  %160 = load ptr, ptr %11, align 8
  %161 = load ptr, ptr %12, align 8
  %162 = call i32 %158(ptr noundef %159, ptr noundef %160, ptr noundef %161)
  %163 = icmp slt i32 %162, 0
  br i1 %163, label %164, label %179

164:                                              ; preds = %153
  br label %165

165:                                              ; preds = %164
  br label %166

166:                                              ; preds = %165
  br label %167

167:                                              ; preds = %166
  %168 = load i64, ptr @H5E_BTREE_g, align 8
  %169 = load i64, ptr @H5E_CANTENCODE_g, align 8
  %170 = call i32 (ptr, ptr, i32, i64, i64, ptr, ...) @H5E_printf_stack(ptr noundef @.str.1, ptr noundef @__func__.H5B__cache_serialize, i32 noundef 321, i64 noundef %168, i64 noundef %169, ptr noundef @.str.14)
  br label %171

171:                                              ; preds = %167
  store i8 1, ptr %15, align 1
  %172 = load i8, ptr %15, align 1
  %173 = trunc i8 %172 to i1
  %174 = zext i1 %173 to i8
  store i8 %174, ptr %15, align 1
  br label %175

175:                                              ; preds = %171
  br label %176

176:                                              ; preds = %175
  store i32 -1, ptr %14, align 4
  br label %194

177:                                              ; No predecessors!
  br label %178

178:                                              ; preds = %177
  br label %179

179:                                              ; preds = %178, %153
  %180 = load ptr, ptr %10, align 8
  %181 = getelementptr inbounds %struct.H5B_shared_t, ptr %180, i32 0, i32 2
  %182 = load i64, ptr %181, align 8
  %183 = load ptr, ptr %11, align 8
  %184 = getelementptr inbounds i8, ptr %183, i64 %182
  store ptr %184, ptr %11, align 8
  br label %185

185:                                              ; preds = %179, %148
  %186 = load ptr, ptr %11, align 8
  %187 = load i64, ptr %7, align 8
  %188 = load ptr, ptr %11, align 8
  %189 = load ptr, ptr %6, align 8
  %190 = ptrtoint ptr %188 to i64
  %191 = ptrtoint ptr %189 to i64
  %192 = sub i64 %190, %191
  %193 = sub i64 %187, %192
  call void @llvm.memset.p0.i64(ptr align 1 %186, i8 0, i64 %193, i1 false)
  br label %194

194:                                              ; preds = %185, %176, %121, %52
  %195 = load i32, ptr %14, align 4
  ret i32 %195
}