; Function Attrs: nounwind uwtable
define internal range(i32 -1, 1) i32 @H5B__cache_serialize(ptr noundef %0, ptr noundef %1, i64 noundef %2, ptr nocapture noundef readonly %3) #1 {
  %5 = alloca ptr, align 8
  %6 = getelementptr inbounds i8, ptr %3, i64 248
  %7 = load ptr, ptr %6, align 8
  %8 = load ptr, ptr %7, align 8
  store i32 1162170964, ptr %1, align 1
  %9 = getelementptr inbounds i8, ptr %1, i64 4
  %10 = load ptr, ptr %8, align 8
  %11 = load i32, ptr %10, align 8
  %12 = trunc i32 %11 to i8
  store i8 %12, ptr %9, align 1
  %13 = getelementptr inbounds i8, ptr %3, i64 256
  %14 = load i32, ptr %13, align 8
  %15 = icmp ugt i32 %14, 255
  br i1 %15, label %16, label %20

16:                                               ; preds = %4
  %17 = load i64, ptr @H5E_BTREE_g, align 8
  %18 = load i64, ptr @H5E_CANTENCODE_g, align 8
  %19 = tail call i32 (ptr, ptr, i32, i64, i64, ptr, ...) @H5E_printf_stack(ptr noundef nonnull @.str.1, ptr noundef nonnull @__func__.H5B__cache_serialize, i32 noundef 294, i64 noundef %17, i64 noundef %18, ptr noundef nonnull @.str.13) #5
  br label %87

20:                                               ; preds = %4
  %21 = getelementptr inbounds i8, ptr %1, i64 5
  %22 = trunc nuw i32 %14 to i8
  %23 = getelementptr inbounds i8, ptr %1, i64 6
  store i8 %22, ptr %21, align 1
  %24 = getelementptr inbounds i8, ptr %3, i64 260
  %25 = load i32, ptr %24, align 4
  %26 = trunc i32 %25 to i8
  store i8 %26, ptr %23, align 1
  %27 = getelementptr inbounds i8, ptr %1, i64 7
  %28 = load i32, ptr %24, align 4
  %29 = lshr i32 %28, 8
  %30 = trunc i32 %29 to i8
  store i8 %30, ptr %27, align 1
  %31 = getelementptr inbounds i8, ptr %1, i64 8
  store ptr %31, ptr %5, align 8
  %32 = getelementptr inbounds i8, ptr %3, i64 264
  %33 = load i64, ptr %32, align 8
  call void @H5F_addr_encode(ptr noundef %0, ptr noundef nonnull %5, i64 noundef %33) #5
  %34 = getelementptr inbounds i8, ptr %3, i64 272
  %35 = load i64, ptr %34, align 8
  call void @H5F_addr_encode(ptr noundef %0, ptr noundef nonnull %5, i64 noundef %35) #5
  %36 = load i32, ptr %24, align 4
  %.not44 = icmp eq i32 %36, 0
  br i1 %.not44, label %._crit_edge.thread, label %.lr.ph

._crit_edge.thread:                               ; preds = %20
  %.pre50 = load ptr, ptr %5, align 8
  br label %82

.lr.ph:                                           ; preds = %20
  %37 = getelementptr inbounds i8, ptr %3, i64 280
  %38 = load ptr, ptr %37, align 8
  %39 = getelementptr inbounds i8, ptr %8, i64 16
  %40 = getelementptr inbounds i8, ptr %3, i64 288
  br label %41

41:                                               ; preds = %.lr.ph, %52
  %indvars.iv = phi i64 [ 0, %.lr.ph ], [ %indvars.iv.next, %52 ]
  %.03641 = phi ptr [ %38, %.lr.ph ], [ %59, %52 ]
  %42 = load ptr, ptr %8, align 8
  %43 = getelementptr inbounds i8, ptr %42, i64 88
  %44 = load ptr, ptr %43, align 8
  %45 = load ptr, ptr %5, align 8
  %46 = call i32 %44(ptr noundef nonnull %8, ptr noundef %45, ptr noundef %.03641) #5
  %47 = icmp slt i32 %46, 0
  br i1 %47, label %48, label %52

48:                                               ; preds = %41
  %49 = load i64, ptr @H5E_BTREE_g, align 8
  %50 = load i64, ptr @H5E_CANTENCODE_g, align 8
  %51 = call i32 (ptr, ptr, i32, i64, i64, ptr, ...) @H5E_printf_stack(ptr noundef nonnull @.str.1, ptr noundef nonnull @__func__.H5B__cache_serialize, i32 noundef 311, i64 noundef %49, i64 noundef %50, ptr noundef nonnull @.str.14) #5
  br label %87

52:                                               ; preds = %41
  %53 = load i64, ptr %39, align 8
  %54 = load ptr, ptr %5, align 8
  %55 = getelementptr inbounds i8, ptr %54, i64 %53
  store ptr %55, ptr %5, align 8
  %56 = load ptr, ptr %8, align 8
  %57 = getelementptr inbounds i8, ptr %56, i64 8
  %58 = load i64, ptr %57, align 8
  %59 = getelementptr inbounds i8, ptr %.03641, i64 %58
  %60 = load ptr, ptr %40, align 8
  %61 = getelementptr inbounds i64, ptr %60, i64 %indvars.iv
  %62 = load i64, ptr %61, align 8
  call void @H5F_addr_encode(ptr noundef %0, ptr noundef nonnull %5, i64 noundef %62) #5
  %indvars.iv.next = add nuw nsw i64 %indvars.iv, 1
  %63 = load i32, ptr %24, align 4
  %64 = zext i32 %63 to i64
  %65 = icmp ult i64 %indvars.iv.next, %64
  br i1 %65, label %41, label %._crit_edge

._crit_edge:                                      ; preds = %52
  %66 = icmp eq i32 %63, 0
  %.pre = load ptr, ptr %5, align 8
  br i1 %66, label %82, label %67

67:                                               ; preds = %._crit_edge
  %68 = load ptr, ptr %8, align 8
  %69 = getelementptr inbounds i8, ptr %68, i64 88
  %70 = load ptr, ptr %69, align 8
  %71 = call i32 %70(ptr noundef nonnull %8, ptr noundef %.pre, ptr noundef %59) #5
  %72 = icmp slt i32 %71, 0
  br i1 %72, label %73, label %77

73:                                               ; preds = %67
  %74 = load i64, ptr @H5E_BTREE_g, align 8
  %75 = load i64, ptr @H5E_CANTENCODE_g, align 8
  %76 = call i32 (ptr, ptr, i32, i64, i64, ptr, ...) @H5E_printf_stack(ptr noundef nonnull @.str.1, ptr noundef nonnull @__func__.H5B__cache_serialize, i32 noundef 321, i64 noundef %74, i64 noundef %75, ptr noundef nonnull @.str.14) #5
  br label %87

77:                                               ; preds = %67
  %78 = getelementptr inbounds i8, ptr %8, i64 16
  %79 = load i64, ptr %78, align 8
  %80 = load ptr, ptr %5, align 8
  %81 = getelementptr inbounds i8, ptr %80, i64 %79
  br label %82

82:                                               ; preds = %._crit_edge.thread, %77, %._crit_edge
  %83 = phi ptr [ %81, %77 ], [ %.pre, %._crit_edge ], [ %.pre50, %._crit_edge.thread ]
  %84 = ptrtoint ptr %83 to i64
  %85 = ptrtoint ptr %1 to i64
  %.neg = add i64 %85, %2
  %86 = sub i64 %.neg, %84
  call void @llvm.memset.p0.i64(ptr align 1 %83, i8 0, i64 %86, i1 false)
  br label %87

87:                                               ; preds = %82, %73, %48, %16
  %.0 = phi i32 [ -1, %16 ], [ -1, %48 ], [ -1, %73 ], [ 0, %82 ]
  ret i32 %.0
}